target datalayout = "e-m:e-p270:32:32-p271:32:32-p272:64:64-i64:64-i128:128-f80:128-n8:16:32:64-S128"
target triple = "x86_64-pc-linux-gnu"

%"class.std::__cxx11::basic_string" = type { %"struct.std::__cxx11::basic_string<char>::_Alloc_hider", i64, %union.anon }
%"struct.std::__cxx11::basic_string<char>::_Alloc_hider" = type { ptr }
%union.anon = type { i64, [8 x i8] }
%class.insn_t = type { i64 }

; Function Attrs: mustprogress nounwind uwtable
define linkonce_odr noundef i64 @_ZN6insn_t1xEii(ptr noundef nonnull align 8 dereferenceable(8) %0, i32 noundef %1, i32 noundef %2) #1 comdat align 2 {
  %4 = alloca ptr, align 8
  %5 = alloca i32, align 4
  %6 = alloca i32, align 4
  store ptr %0, ptr %4, align 8
  store i32 %1, ptr %5, align 4
  store i32 %2, ptr %6, align 4
  %7 = load ptr, ptr %4, align 8
  %8 = getelementptr inbounds %class.insn_t, ptr %7, i32 0, i32 0
  %9 = load i64, ptr %8, align 8
  %10 = load i32, ptr %5, align 4
  %11 = zext i32 %10 to i64
  %12 = lshr i64 %9, %11
  %13 = load i32, ptr %6, align 4
  %14 = zext i32 %13 to i64
  %15 = shl i64 1, %14
  %16 = sub i64 %15, 1
  %17 = and i64 %12, %16
  ret i64 %17
}

; Function Attrs: mustprogress nounwind uwtable
define linkonce_odr noundef i64 @_ZN6insn_t9rvc_spimmEv(ptr noundef nonnull align 8 dereferenceable(8) %0) #1 comdat align 2 {
  %2 = alloca ptr, align 8
  store ptr %0, ptr %2, align 8
  %3 = load ptr, ptr %2, align 8
  %4 = call noundef i64 @_ZN6insn_t1xEii(ptr noundef nonnull align 8 dereferenceable(8) %3, i32 noundef 2, i32 noundef 2)
  %5 = shl i64 %4, 4
  ret i64 %5
}

; Function Attrs: mustprogress nounwind uwtable
define linkonce_odr noundef i64 @_ZN6insn_t9rvc_rlistEv(ptr noundef nonnull align 8 dereferenceable(8) %0) #1 comdat align 2 {
  %2 = alloca ptr, align 8
  store ptr %0, ptr %2, align 8
  %3 = load ptr, ptr %2, align 8
  %4 = call noundef i64 @_ZN6insn_t1xEii(ptr noundef nonnull align 8 dereferenceable(8) %3, i32 noundef 4, i32 noundef 4)
  ret i64 %4
}

; Function Attrs: mustprogress uwtable
define linkonce_odr noundef i64 @_ZN6insn_t21zcmp_stack_adjustmentEi(ptr noundef nonnull align 8 dereferenceable(8) %0, i32 noundef %1) #3 comdat align 2 {
  %3 = alloca ptr, align 8
  %4 = alloca i32, align 4
  %5 = alloca i64, align 8
  store ptr %0, ptr %3, align 8
  store i32 %1, ptr %4, align 4
  %6 = load ptr, ptr %3, align 8
  store i64 0, ptr %5, align 8
  %7 = call noundef i64 @_ZN6insn_t9rvc_rlistEv(ptr noundef nonnull align 8 dereferenceable(8) %6)
  switch i64 %7, label %41 [
    i64 15, label %8
    i64 14, label %11
    i64 13, label %18
    i64 12, label %18
    i64 11, label %21
    i64 10, label %21
    i64 9, label %28
    i64 8, label %28
    i64 7, label %31
    i64 6, label %31
    i64 5, label %38
    i64 4, label %38
  ]

8:                                                ; preds = %2
  %9 = load i64, ptr %5, align 8
  %10 = add i64 %9, 16
  store i64 %10, ptr %5, align 8
  br label %11

11:                                               ; preds = %8, %2
  %12 = load i32, ptr %4, align 4
  %13 = icmp eq i32 %12, 64
  br i1 %13, label %14, label %17

14:                                               ; preds = %11
  %15 = load i64, ptr %5, align 8
  %16 = add i64 %15, 16
  store i64 %16, ptr %5, align 8
  br label %17

17:                                               ; preds = %14, %11
  br label %18

18:                                               ; preds = %17, %2, %2
  %19 = load i64, ptr %5, align 8
  %20 = add i64 %19, 16
  store i64 %20, ptr %5, align 8
  br label %21

21:                                               ; preds = %18, %2, %2
  %22 = load i32, ptr %4, align 4
  %23 = icmp eq i32 %22, 64
  br i1 %23, label %24, label %27

24:                                               ; preds = %21
  %25 = load i64, ptr %5, align 8
  %26 = add i64 %25, 16
  store i64 %26, ptr %5, align 8
  br label %27

27:                                               ; preds = %24, %21
  br label %28

28:                                               ; preds = %27, %2, %2
  %29 = load i64, ptr %5, align 8
  %30 = add i64 %29, 16
  store i64 %30, ptr %5, align 8
  br label %31

31:                                               ; preds = %28, %2, %2
  %32 = load i32, ptr %4, align 4
  %33 = icmp eq i32 %32, 64
  br i1 %33, label %34, label %37

34:                                               ; preds = %31
  %35 = load i64, ptr %5, align 8
  %36 = add i64 %35, 16
  store i64 %36, ptr %5, align 8
  br label %37

37:                                               ; preds = %34, %31
  br label %38

38:                                               ; preds = %37, %2, %2
  %39 = load i64, ptr %5, align 8
  %40 = add i64 %39, 16
  store i64 %40, ptr %5, align 8
  br label %41

41:                                               ; preds = %38, %2
  %42 = load i64, ptr %5, align 8
  %43 = call noundef i64 @_ZN6insn_t9rvc_spimmEv(ptr noundef nonnull align 8 dereferenceable(8) %6)
  %44 = add i64 %42, %43
  ret i64 %44
}

; Function Attrs: mustprogress uwtable
define internal void @"_ZNK4$_119to_stringB5cxx11E6insn_t"(ptr dead_on_unwind noalias writable sret(%"class.std::__cxx11::basic_string") align 8 %0, ptr noundef nonnull align 8 dereferenceable(8) %1, i64 %2) unnamed_addr #3 align 2 {
  %4 = alloca ptr, align 8
  %5 = alloca %class.insn_t, align 8
  %6 = alloca ptr, align 8
  store ptr %0, ptr %4, align 8
  %7 = getelementptr inbounds %class.insn_t, ptr %5, i32 0, i32 0
  store i64 %2, ptr %7, align 8
  store ptr %1, ptr %6, align 8
  %8 = call noundef i64 @_ZN6insn_t21zcmp_stack_adjustmentEi(ptr noundef nonnull align 8 dereferenceable(8) %5, i32 noundef 32)
  call void @_ZNSt7__cxx119to_stringEm(ptr dead_on_unwind writable sret(%"class.std::__cxx11::basic_string") align 8 %0, i64 noundef %8)
  ret void
}