; Function Attrs: mustprogress uwtable
define internal void @"_ZNK4$_119to_stringB5cxx11E6insn_t"(ptr dead_on_unwind noalias writable sret(%"class.std::__cxx11::basic_string") align 8 %0, ptr nocapture nonnull readnone align 8 %1, i64 %2) unnamed_addr #1 align 2 {
  %4 = lshr i64 %2, 4
  %5 = and i64 %4, 15
  %switch.tableidx = add nsw i64 %5, -4
  %6 = icmp ult i64 %switch.tableidx, 12
  br i1 %6, label %switch.lookup, label %_ZN6insn_t21zcmp_stack_adjustmentEi.exit

switch.lookup:                                    ; preds = %3
  %switch.gep = getelementptr inbounds [12 x i64], ptr @"switch.table._ZNK4$_119to_stringB5cxx11E6insn_t", i64 0, i64 %switch.tableidx
  %switch.load = load i64, ptr %switch.gep, align 8
  br label %_ZN6insn_t21zcmp_stack_adjustmentEi.exit

_ZN6insn_t21zcmp_stack_adjustmentEi.exit:         ; preds = %switch.lookup, %3
  %.6.i = phi i64 [ 0, %3 ], [ %switch.load, %switch.lookup ]
  %7 = shl i64 %2, 2
  %8 = and i64 %7, 48
  %9 = add nuw nsw i64 %.6.i, %8
  tail call void @_ZNSt7__cxx119to_stringEm(ptr dead_on_unwind writable sret(%"class.std::__cxx11::basic_string") align 8 %0, i64 noundef %9)
  ret void
}